; Function Attrs: nofree nounwind uwtable
define void @Int_ManPrintClause(ptr noundef readonly captures(none) %0, ptr noundef readonly captures(none) %1) local_unnamed_addr #10 {
  %3 = getelementptr inbounds nuw i8, ptr %1, i64 24
  %4 = load i32, ptr %3, align 8, !tbaa !47
  %5 = getelementptr i8, ptr %0, i64 184
  %.val = load ptr, ptr %5, align 8, !tbaa !43
  %6 = sext i32 %4 to i64
  %7 = getelementptr inbounds i32, ptr %.val, i64 %6
  %8 = load i32, ptr %7, align 4, !tbaa !24
  %9 = tail call i32 (ptr, ...) @printf(ptr noundef nonnull dereferenceable(1) @.str, i32 noundef %4, i32 noundef %8)
  %10 = getelementptr inbounds nuw i8, ptr %1, i64 28
  %11 = load i32, ptr %10, align 4
  %12 = and i32 %11, 134217720
  %.not = icmp eq i32 %12, 0
  br i1 %.not, label %._crit_edge, label %.lr.ph

.lr.ph:                                           ; preds = %2
  %13 = getelementptr inbounds nuw i8, ptr %1, i64 32
  br label %14

14:                                               ; preds = %.lr.ph, %14
  %indvars.iv = phi i64 [ 0, %.lr.ph ], [ %indvars.iv.next, %14 ]
  %15 = getelementptr inbounds nuw [0 x i32], ptr %13, i64 0, i64 %indvars.iv
  %16 = load i32, ptr %15, align 4, !tbaa !24
  %17 = tail call i32 (ptr, ...) @printf(ptr noundef nonnull dereferenceable(1) @.str.1, i32 noundef %16)
  %indvars.iv.next = add nuw nsw i64 %indvars.iv, 1
  %18 = load i32, ptr %10, align 4
  %19 = lshr i32 %18, 3
  %20 = and i32 %19, 16777215
  %21 = zext nneg i32 %20 to i64
  %22 = icmp samesign ult i64 %indvars.iv.next, %21
  br i1 %22, label %14, label %._crit_edge, !llvm.loop !49

._crit_edge:                                      ; preds = %14, %2
  %puts = tail call i32 @puts(ptr nonnull dereferenceable(1) @str.1)
  ret void
}